target datalayout = "e-m:e-p270:32:32-p271:32:32-p272:64:64-i64:64-i128:128-f80:128-n8:16:32:64-S128"
target triple = "x86_64-pc-linux-gnu"

%struct.ossl_cmp_itav_st = type { ptr, %union.anon }
%union.anon = type { ptr }

@OSSL_CMP_ITAV_it.local_it = internal constant { i8, [7 x i8], i64, ptr, i64, ptr, i64, ptr } { i8 1, [7 x i8] zeroinitializer, i64 16, ptr @OSSL_CMP_ITAV_seq_tt, i64 2, ptr null, i64 16, ptr @.str.6 }, align 8

; Function Attrs: nounwind uwtable
define ptr @OSSL_CMP_ITAV_it() #0 {
  ret ptr @OSSL_CMP_ITAV_it.local_it
}

; Function Attrs: nounwind uwtable
define void @OSSL_CMP_ITAV_set0(ptr noundef %0, ptr noundef %1, ptr noundef %2) #0 {
  %4 = alloca ptr, align 8
  %5 = alloca ptr, align 8
  %6 = alloca ptr, align 8
  store ptr %0, ptr %4, align 8, !tbaa !28
  store ptr %1, ptr %5, align 8, !tbaa !50
  store ptr %2, ptr %6, align 8, !tbaa !52
  %7 = load ptr, ptr %5, align 8, !tbaa !50
  %8 = load ptr, ptr %4, align 8, !tbaa !28
  %9 = getelementptr inbounds nuw %struct.ossl_cmp_itav_st, ptr %8, i32 0, i32 0
  store ptr %7, ptr %9, align 8, !tbaa !54
  %10 = load ptr, ptr %6, align 8, !tbaa !52
  %11 = load ptr, ptr %4, align 8, !tbaa !28
  %12 = getelementptr inbounds nuw %struct.ossl_cmp_itav_st, ptr %11, i32 0, i32 1
  store ptr %10, ptr %12, align 8, !tbaa !56
  ret void
}

; Function Attrs: nounwind uwtable
define ptr @OSSL_CMP_ITAV_new() #0 {
  %1 = call ptr @OSSL_CMP_ITAV_it()
  %2 = call ptr @ASN1_item_new(ptr noundef %1)
  ret ptr %2
}

; Function Attrs: nounwind uwtable
define ptr @OSSL_CMP_ITAV_create(ptr noundef %0, ptr noundef %1) #0 {
  %3 = alloca ptr, align 8
  %4 = alloca ptr, align 8
  %5 = alloca ptr, align 8
  %6 = alloca ptr, align 8
  %7 = alloca i32, align 4
  store ptr %0, ptr %4, align 8, !tbaa !50
  store ptr %1, ptr %5, align 8, !tbaa !52
  call void @llvm.lifetime.start.p0(i64 8, ptr %6) #4
  %8 = load ptr, ptr %4, align 8, !tbaa !50
  %9 = icmp eq ptr %8, null
  br i1 %9, label %13, label %10

10:                                               ; preds = %2
  %11 = call ptr @OSSL_CMP_ITAV_new()
  store ptr %11, ptr %6, align 8, !tbaa !28
  %12 = icmp eq ptr %11, null
  br i1 %12, label %13, label %14

13:                                               ; preds = %10, %2
  store ptr null, ptr %3, align 8
  store i32 1, ptr %7, align 4
  br label %19

14:                                               ; preds = %10
  %15 = load ptr, ptr %6, align 8, !tbaa !28
  %16 = load ptr, ptr %4, align 8, !tbaa !50
  %17 = load ptr, ptr %5, align 8, !tbaa !52
  call void @OSSL_CMP_ITAV_set0(ptr noundef %15, ptr noundef %16, ptr noundef %17)
  %18 = load ptr, ptr %6, align 8, !tbaa !28
  store ptr %18, ptr %3, align 8
  store i32 1, ptr %7, align 4
  br label %19

19:                                               ; preds = %14, %13
  call void @llvm.lifetime.end.p0(i64 8, ptr %6) #4
  %20 = load ptr, ptr %3, align 8
  ret ptr %20
}