; Function Attrs: nounwind uwtable
define ptr @OSSL_CMP_ITAV_create(ptr noundef %0, ptr noundef %1) local_unnamed_addr #1 {
  %3 = icmp eq ptr %0, null
  br i1 %3, label %9, label %4

4:                                                ; preds = %2
  %5 = tail call ptr @ASN1_item_new(ptr noundef nonnull @OSSL_CMP_ITAV_it.local_it) #6
  %6 = icmp eq ptr %5, null
  br i1 %6, label %9, label %7

7:                                                ; preds = %4
  store ptr %0, ptr %5, align 8, !tbaa !3
  %8 = getelementptr inbounds nuw i8, ptr %5, i64 8
  store ptr %1, ptr %8, align 8, !tbaa !9
  br label %9

9:                                                ; preds = %2, %4, %7
  %.0 = phi ptr [ %5, %7 ], [ null, %4 ], [ null, %2 ]
  ret ptr %.0
}